target datalayout = "e-m:e-p270:32:32-p271:32:32-p272:64:64-i64:64-i128:128-f80:128-n8:16:32:64-S128"
target triple = "x86_64-pc-linux-gnu"

%"class.cmrc::embedded_filesystem" = type { ptr }

@_ZZN4cmrc7cmakerc14get_filesystemEvE5indexB5cxx11 = internal global ptr null, align 8
@_ZGVZN4cmrc7cmakerc14get_filesystemEvE5indexB5cxx11 = internal global i64 0, align 8

; Function Attrs: mustprogress nounwind uwtable
define linkonce_odr dso_local void @_ZN4cmrc19embedded_filesystemC2ERKSt3mapINSt7__cxx1112basic_stringIcSt11char_traitsIcESaIcEEEPKNS_6detail17file_or_directoryESt4lessIS7_ESaISt4pairIKS7_SB_EEE(ptr noundef nonnull align 8 dereferenceable(8) %0, ptr noundef nonnull align 8 dereferenceable(48) %1) unnamed_addr #2 comdat align 2 {
  %3 = alloca ptr, align 8
  %4 = alloca ptr, align 8
  store ptr %0, ptr %3, align 8, !tbaa !21
  store ptr %1, ptr %4, align 8, !tbaa !5
  %5 = load ptr, ptr %3, align 8
  %6 = getelementptr inbounds nuw %"class.cmrc::embedded_filesystem", ptr %5, i32 0, i32 0
  %7 = load ptr, ptr %4, align 8, !tbaa !5
  store ptr %7, ptr %6, align 8, !tbaa !23
  ret void
}

; Function Attrs: mustprogress uwtable
define dso_local ptr @_ZN4cmrc7cmakerc14get_filesystemEv() #0 personality ptr @__gxx_personality_v0 {
  %1 = alloca %"class.cmrc::embedded_filesystem", align 8
  %2 = alloca ptr, align 8
  %3 = alloca i32, align 4
  %4 = load atomic i8, ptr @_ZGVZN4cmrc7cmakerc14get_filesystemEvE5indexB5cxx11 acquire, align 8
  %5 = icmp eq i8 %4, 0
  br i1 %5, label %6, label %12, !prof !4

6:                                                ; preds = %0
  %7 = call i32 @__cxa_guard_acquire(ptr @_ZGVZN4cmrc7cmakerc14get_filesystemEvE5indexB5cxx11) #1
  %8 = icmp ne i32 %7, 0
  br i1 %8, label %9, label %12

9:                                                ; preds = %6
  %10 = invoke noundef nonnull align 8 dereferenceable(48) ptr @_ZN4cmrc7cmakerc12_GLOBAL__N_114get_root_indexB5cxx11Ev()
          to label %11 unwind label %16

11:                                               ; preds = %9
  store ptr %10, ptr @_ZZN4cmrc7cmakerc14get_filesystemEvE5indexB5cxx11, align 8, !tbaa !5
  call void @__cxa_guard_release(ptr @_ZGVZN4cmrc7cmakerc14get_filesystemEvE5indexB5cxx11) #1
  br label %12

12:                                               ; preds = %11, %6, %0
  %13 = load ptr, ptr @_ZZN4cmrc7cmakerc14get_filesystemEvE5indexB5cxx11, align 8, !tbaa !5
  call void @_ZN4cmrc19embedded_filesystemC2ERKSt3mapINSt7__cxx1112basic_stringIcSt11char_traitsIcESaIcEEEPKNS_6detail17file_or_directoryESt4lessIS7_ESaISt4pairIKS7_SB_EEE(ptr noundef nonnull align 8 dereferenceable(8) %1, ptr noundef nonnull align 8 dereferenceable(48) %13)
  %14 = getelementptr inbounds nuw %"class.cmrc::embedded_filesystem", ptr %1, i32 0, i32 0
  %15 = load ptr, ptr %14, align 8
  ret ptr %15

16:                                               ; preds = %9
  %17 = landingpad { ptr, i32 }
          cleanup
  %18 = extractvalue { ptr, i32 } %17, 0
  store ptr %18, ptr %2, align 8
  %19 = extractvalue { ptr, i32 } %17, 1
  store i32 %19, ptr %3, align 4
  call void @__cxa_guard_abort(ptr @_ZGVZN4cmrc7cmakerc14get_filesystemEvE5indexB5cxx11) #1
  br label %20

20:                                               ; preds = %16
  %21 = load ptr, ptr %2, align 8
  %22 = load i32, ptr %3, align 4
  %23 = insertvalue { ptr, i32 } poison, ptr %21, 0
  %24 = insertvalue { ptr, i32 } %23, i32 %22, 1
  resume { ptr, i32 } %24
}