; Function Attrs: mustprogress uwtable
define dso_local ptr @_ZN4cmrc7cmakerc14get_filesystemEv() local_unnamed_addr #0 personality ptr @__gxx_personality_v0 {
  %1 = load atomic i8, ptr @_ZGVZN4cmrc7cmakerc14get_filesystemEvE5indexB5cxx11 acquire, align 8
  %2 = icmp eq i8 %1, 0
  br i1 %2, label %3, label %7, !prof !4

3:                                                ; preds = %0
  %4 = tail call i32 @__cxa_guard_acquire(ptr nonnull @_ZGVZN4cmrc7cmakerc14get_filesystemEvE5indexB5cxx11) #18
  %.not = icmp eq i32 %4, 0
  br i1 %.not, label %7, label %5

5:                                                ; preds = %3
  invoke fastcc void @_ZN4cmrc7cmakerc12_GLOBAL__N_114get_root_indexB5cxx11Ev()
          to label %6 unwind label %9

6:                                                ; preds = %5
  store ptr @_ZZN4cmrc7cmakerc12_GLOBAL__N_114get_root_indexB5cxx11EvE10root_indexB5cxx11, ptr @_ZZN4cmrc7cmakerc14get_filesystemEvE5indexB5cxx11, align 8, !tbaa !5
  tail call void @__cxa_guard_release(ptr nonnull @_ZGVZN4cmrc7cmakerc14get_filesystemEvE5indexB5cxx11) #18
  br label %7

7:                                                ; preds = %6, %3, %0
  %8 = load ptr, ptr @_ZZN4cmrc7cmakerc14get_filesystemEvE5indexB5cxx11, align 8, !tbaa !5
  ret ptr %8

9:                                                ; preds = %5
  %10 = landingpad { ptr, i32 }
          cleanup
  tail call void @__cxa_guard_abort(ptr nonnull @_ZGVZN4cmrc7cmakerc14get_filesystemEvE5indexB5cxx11) #18
  resume { ptr, i32 } %10
}